target datalayout = "e-m:e-p270:32:32-p271:32:32-p272:64:64-i64:64-i128:128-f80:128-n8:16:32:64-S128"
target triple = "x86_64-pc-linux-gnu"

%"class.std::__cxx11::basic_string" = type { %"struct.std::__cxx11::basic_string<char>::_Alloc_hider", i64, %union.anon }
%"struct.std::__cxx11::basic_string<char>::_Alloc_hider" = type { ptr }
%union.anon = type { i64, [8 x i8] }
%"class.std::optional" = type { %"struct.std::_Optional_base" }
%"struct.std::_Optional_base" = type { %"struct.std::_Optional_payload" }
%"struct.std::_Optional_payload" = type { %"struct.std::_Optional_payload_base.base", [3 x i8] }
%"struct.std::_Optional_payload_base.base" = type <{ %"union.std::_Optional_payload_base<cmCMakePresetsGraph::ArchToolsetStrategy>::_Storage", i8 }>
%"union.std::_Optional_payload_base<cmCMakePresetsGraph::ArchToolsetStrategy>::_Storage" = type { i32 }
%"struct.std::_Optional_payload_base" = type <{ %"union.std::_Optional_payload_base<cmCMakePresetsGraph::ArchToolsetStrategy>::_Storage", i8, [3 x i8] }>

@.str.48 = private unnamed_addr constant [4 x i8] c"set\00", align 1
@.str.49 = private unnamed_addr constant [9 x i8] c"external\00", align 1

; Function Attrs: mustprogress nounwind uwtable
define linkonce_odr dso_local void @_ZNSt22_Optional_payload_baseIN19cmCMakePresetsGraph19ArchToolsetStrategyEE8_StorageIS1_Lb1EEC2IJS1_EEESt10in_place_tDpOT_(ptr noundef nonnull align 4 dereferenceable(4) %0, ptr noundef nonnull align 4 dereferenceable(4) %1) unnamed_addr #5 comdat align 2 {
  %3 = alloca ptr, align 8
  %4 = alloca ptr, align 8
  store ptr %0, ptr %3, align 8
  store ptr %1, ptr %4, align 8
  %5 = load ptr, ptr %3, align 8
  %6 = load ptr, ptr %4, align 8
  %7 = load i32, ptr %6, align 4
  store i32 %7, ptr %5, align 4
  ret void
}

; Function Attrs: mustprogress uwtable
define linkonce_odr dso_local void @_ZNSt22_Optional_payload_baseIN19cmCMakePresetsGraph19ArchToolsetStrategyEEC2IJS1_EEESt10in_place_tDpOT_(ptr noundef nonnull align 4 dereferenceable(5) %0, ptr noundef nonnull align 4 dereferenceable(4) %1) unnamed_addr #4 comdat align 2 {
  %3 = alloca ptr, align 8
  %4 = alloca ptr, align 8
  store ptr %0, ptr %3, align 8
  store ptr %1, ptr %4, align 8
  %5 = load ptr, ptr %3, align 8
  %6 = getelementptr inbounds %"struct.std::_Optional_payload_base", ptr %5, i32 0, i32 0
  %7 = load ptr, ptr %4, align 8
  call void @_ZNSt22_Optional_payload_baseIN19cmCMakePresetsGraph19ArchToolsetStrategyEE8_StorageIS1_Lb1EEC2IJS1_EEESt10in_place_tDpOT_(ptr noundef nonnull align 4 dereferenceable(4) %6, ptr noundef nonnull align 4 dereferenceable(4) %7)
  %8 = getelementptr inbounds %"struct.std::_Optional_payload_base", ptr %5, i32 0, i32 1
  store i8 1, ptr %8, align 4
  ret void
}

; Function Attrs: mustprogress nounwind uwtable
define linkonce_odr dso_local void @_ZNSt22_Optional_payload_baseIN19cmCMakePresetsGraph19ArchToolsetStrategyEE10_M_destroyEv(ptr noundef nonnull align 4 dereferenceable(5) %0) #5 comdat align 2 {
  %2 = alloca ptr, align 8
  store ptr %0, ptr %2, align 8
  %3 = load ptr, ptr %2, align 8
  %4 = getelementptr inbounds %"struct.std::_Optional_payload_base", ptr %3, i32 0, i32 1
  store i8 0, ptr %4, align 4
  ret void
}

; Function Attrs: mustprogress uwtable
define linkonce_odr dso_local void @_ZNSt17_Optional_payloadIN19cmCMakePresetsGraph19ArchToolsetStrategyELb1ELb1ELb1EECI2St22_Optional_payload_baseIS1_EIJS1_EEESt10in_place_tDpOT_(ptr noundef nonnull align 4 dereferenceable(5) %0, ptr noundef nonnull align 4 dereferenceable(4) %1) unnamed_addr #4 comdat align 2 {
  %3 = alloca ptr, align 8
  %4 = alloca ptr, align 8
  store ptr %0, ptr %3, align 8
  store ptr %1, ptr %4, align 8
  %5 = load ptr, ptr %3, align 8
  %6 = load ptr, ptr %4, align 8
  call void @_ZNSt22_Optional_payload_baseIN19cmCMakePresetsGraph19ArchToolsetStrategyEEC2IJS1_EEESt10in_place_tDpOT_(ptr noundef nonnull align 4 dereferenceable(5) %5, ptr noundef nonnull align 4 dereferenceable(4) %6)
  ret void
}

; Function Attrs: mustprogress nounwind uwtable
define linkonce_odr dso_local void @_ZNSt22_Optional_payload_baseIN19cmCMakePresetsGraph19ArchToolsetStrategyEE8_M_resetEv(ptr noundef nonnull align 4 dereferenceable(5) %0) #5 comdat align 2 {
  %2 = alloca ptr, align 8
  store ptr %0, ptr %2, align 8
  %3 = load ptr, ptr %2, align 8
  %4 = getelementptr inbounds %"struct.std::_Optional_payload_base", ptr %3, i32 0, i32 1
  %5 = load i8, ptr %4, align 4
  %6 = trunc i8 %5 to i1
  br i1 %6, label %7, label %8

7:                                                ; preds = %1
  call void @_ZNSt22_Optional_payload_baseIN19cmCMakePresetsGraph19ArchToolsetStrategyEE10_M_destroyEv(ptr noundef nonnull align 4 dereferenceable(5) %3) #3
  br label %8

8:                                                ; preds = %7, %1
  ret void
}

; Function Attrs: noreturn nounwind uwtable
define linkonce_odr hidden void @__clang_call_terminate(ptr noundef %0) #6 comdat {
  %2 = call ptr @__cxa_begin_catch(ptr %0) #3
  call void @_ZSt9terminatev() #15
  unreachable
}

; Function Attrs: mustprogress uwtable
define linkonce_odr dso_local void @_ZNSt14_Optional_baseIN19cmCMakePresetsGraph19ArchToolsetStrategyELb1ELb1EEC2IJS1_ETnNSt9enable_ifIX18is_constructible_vIS1_DpT_EEbE4typeELb0EEESt10in_place_tDpOS5_(ptr noundef nonnull align 4 dereferenceable(8) %0, ptr noundef nonnull align 4 dereferenceable(4) %1) unnamed_addr #4 comdat align 2 {
  %3 = alloca ptr, align 8
  %4 = alloca ptr, align 8
  store ptr %0, ptr %3, align 8
  store ptr %1, ptr %4, align 8
  %5 = load ptr, ptr %3, align 8
  %6 = getelementptr inbounds %"struct.std::_Optional_base", ptr %5, i32 0, i32 0
  %7 = load ptr, ptr %4, align 8
  call void @_ZNSt17_Optional_payloadIN19cmCMakePresetsGraph19ArchToolsetStrategyELb1ELb1ELb1EECI2St22_Optional_payload_baseIS1_EIJS1_EEESt10in_place_tDpOT_(ptr noundef nonnull align 4 dereferenceable(5) %6, ptr noundef nonnull align 4 dereferenceable(4) %7)
  ret void
}

; Function Attrs: mustprogress nounwind uwtable
define linkonce_odr dso_local void @_ZNSt19_Optional_base_implIN19cmCMakePresetsGraph19ArchToolsetStrategyESt14_Optional_baseIS1_Lb1ELb1EEE8_M_resetEv(ptr noundef nonnull align 1 dereferenceable(1) %0) #5 comdat align 2 {
  %2 = alloca ptr, align 8
  store ptr %0, ptr %2, align 8
  %3 = load ptr, ptr %2, align 8
  %4 = getelementptr inbounds %"struct.std::_Optional_base", ptr %3, i32 0, i32 0
  call void @_ZNSt22_Optional_payload_baseIN19cmCMakePresetsGraph19ArchToolsetStrategyEE8_M_resetEv(ptr noundef nonnull align 4 dereferenceable(5) %4) #3
  ret void
}

; Function Attrs: mustprogress nounwind uwtable
define linkonce_odr dso_local void @_ZNSt8optionalIN19cmCMakePresetsGraph19ArchToolsetStrategyEEC2IS1_TnNSt9enable_ifIX7__and_vISt6__not_ISt7is_sameIS2_NSt9remove_cvINSt16remove_referenceIT_E4typeEE4typeEEES5_IS6_ISt10in_place_tSD_EESt16is_constructibleIS1_JS9_EESt14is_convertibleIS9_S1_EEEbE4typeELb1EEEOS9_(ptr noundef nonnull align 4 dereferenceable(8) %0, ptr noundef nonnull align 4 dereferenceable(4) %1) unnamed_addr #5 comdat align 2 personality ptr @__gxx_personality_v0 {
  %3 = alloca ptr, align 8
  %4 = alloca ptr, align 8
  store ptr %0, ptr %3, align 8
  store ptr %1, ptr %4, align 8
  %5 = load ptr, ptr %3, align 8
  %6 = load ptr, ptr %4, align 8
  invoke void @_ZNSt14_Optional_baseIN19cmCMakePresetsGraph19ArchToolsetStrategyELb1ELb1EEC2IJS1_ETnNSt9enable_ifIX18is_constructible_vIS1_DpT_EEbE4typeELb0EEESt10in_place_tDpOS5_(ptr noundef nonnull align 4 dereferenceable(8) %5, ptr noundef nonnull align 4 dereferenceable(4) %6)
          to label %7 unwind label %8

7:                                                ; preds = %2
  ret void

8:                                                ; preds = %2
  %9 = landingpad { ptr, i32 }
          catch ptr null
  %10 = extractvalue { ptr, i32 } %9, 0
  call void @__clang_call_terminate(ptr %10) #15
  unreachable
}

; Function Attrs: mustprogress nounwind uwtable
define linkonce_odr dso_local noundef zeroext i1 @_ZSteqIcSt11char_traitsIcESaIcEEbRKNSt7__cxx1112basic_stringIT_T0_T1_EEPKS5_(ptr noundef nonnull align 8 dereferenceable(32) %0, ptr noundef %1) #5 comdat {
  %3 = alloca ptr, align 8
  %4 = alloca ptr, align 8
  store ptr %0, ptr %3, align 8
  store ptr %1, ptr %4, align 8
  %5 = load ptr, ptr %3, align 8
  %6 = load ptr, ptr %4, align 8
  %7 = call noundef i32 @_ZNKSt7__cxx1112basic_stringIcSt11char_traitsIcESaIcEE7compareEPKc(ptr noundef nonnull align 8 dereferenceable(32) %5, ptr noundef %6) #3
  %8 = icmp eq i32 %7, 0
  ret i1 %8
}

; Function Attrs: mustprogress nounwind uwtable
define linkonce_odr dso_local noundef nonnull align 4 dereferenceable(8) ptr @_ZNSt8optionalIN19cmCMakePresetsGraph19ArchToolsetStrategyEEaSESt9nullopt_t(ptr noundef nonnull align 4 dereferenceable(8) %0) #5 comdat align 2 {
  %2 = alloca ptr, align 8
  store ptr %0, ptr %2, align 8
  %3 = load ptr, ptr %2, align 8
  call void @_ZNSt19_Optional_base_implIN19cmCMakePresetsGraph19ArchToolsetStrategyESt14_Optional_baseIS1_Lb1ELb1EEE8_M_resetEv(ptr noundef nonnull align 1 dereferenceable(1) %3) #3
  ret ptr %3
}

; Function Attrs: mustprogress uwtable
define internal noundef zeroext i1 @_ZN12_GLOBAL__N_125ArchToolsetStrategyHelperERSt8optionalIN19cmCMakePresetsGraph19ArchToolsetStrategyEEPKN4Json5ValueEP11cmJSONState(ptr noundef nonnull align 4 dereferenceable(8) %0, ptr noundef %1, ptr noundef %2) #4 personality ptr @__gxx_personality_v0 {
  %4 = alloca i1, align 1
  %5 = alloca ptr, align 8
  %6 = alloca ptr, align 8
  %7 = alloca ptr, align 8
  %8 = alloca %"class.std::__cxx11::basic_string", align 8
  %9 = alloca ptr, align 8
  %10 = alloca i32, align 4
  %11 = alloca %"class.std::optional", align 4
  %12 = alloca i32, align 4
  %13 = alloca %"class.std::__cxx11::basic_string", align 8
  %14 = alloca %"class.std::optional", align 4
  %15 = alloca i32, align 4
  store ptr %0, ptr %5, align 8
  store ptr %1, ptr %6, align 8
  store ptr %2, ptr %7, align 8
  %16 = load ptr, ptr %6, align 8
  %17 = icmp ne ptr %16, null
  br i1 %17, label %21, label %18

18:                                               ; preds = %3
  %19 = load ptr, ptr %5, align 8
  %20 = call noundef nonnull align 4 dereferenceable(8) ptr @_ZNSt8optionalIN19cmCMakePresetsGraph19ArchToolsetStrategyEEaSESt9nullopt_t(ptr noundef nonnull align 4 dereferenceable(8) %19) #3
  store i1 true, ptr %4, align 1
  br label %50

21:                                               ; preds = %3
  %22 = load ptr, ptr %6, align 8
  %23 = call noundef zeroext i1 @_ZNK4Json5Value8isStringEv(ptr noundef nonnull align 8 dereferenceable(40) %22)
  br i1 %23, label %27, label %24

24:                                               ; preds = %21
  %25 = load ptr, ptr %6, align 8
  %26 = load ptr, ptr %7, align 8
  call void @_ZN20cmCMakePresetsErrors14INVALID_PRESETEPKN4Json5ValueEP11cmJSONState(ptr noundef %25, ptr noundef %26)
  store i1 false, ptr %4, align 1
  br label %50

27:                                               ; preds = %21
  %28 = load ptr, ptr %6, align 8
  call void @_ZNK4Json5Value8asStringB5cxx11Ev(ptr dead_on_unwind writable sret(%"class.std::__cxx11::basic_string") align 8 %8, ptr noundef nonnull align 8 dereferenceable(40) %28)
  %29 = invoke noundef zeroext i1 @_ZSteqIcSt11char_traitsIcESaIcEEbRKNSt7__cxx1112basic_stringIT_T0_T1_EEPKS5_(ptr noundef nonnull align 8 dereferenceable(32) %8, ptr noundef @.str.48)
          to label %30 unwind label %33

30:                                               ; preds = %27
  call void @_ZNSt7__cxx1112basic_stringIcSt11char_traitsIcESaIcEED1Ev(ptr noundef nonnull align 8 dereferenceable(32) %8) #3
  br i1 %29, label %31, label %37

31:                                               ; preds = %30
  store i32 0, ptr %12, align 4
  call void @_ZNSt8optionalIN19cmCMakePresetsGraph19ArchToolsetStrategyEEC2IS1_TnNSt9enable_ifIX7__and_vISt6__not_ISt7is_sameIS2_NSt9remove_cvINSt16remove_referenceIT_E4typeEE4typeEEES5_IS6_ISt10in_place_tSD_EESt16is_constructibleIS1_JS9_EESt14is_convertibleIS9_S1_EEEbE4typeELb1EEEOS9_(ptr noundef nonnull align 4 dereferenceable(8) %11, ptr noundef nonnull align 4 dereferenceable(4) %12) #3
  %32 = load ptr, ptr %5, align 8
  call void @llvm.memcpy.p0.p0.i64(ptr align 4 %32, ptr align 4 %11, i64 8, i1 false)
  store i1 true, ptr %4, align 1
  br label %50

33:                                               ; preds = %27
  %34 = landingpad { ptr, i32 }
          cleanup
  %35 = extractvalue { ptr, i32 } %34, 0
  store ptr %35, ptr %9, align 8
  %36 = extractvalue { ptr, i32 } %34, 1
  store i32 %36, ptr %10, align 4
  call void @_ZNSt7__cxx1112basic_stringIcSt11char_traitsIcESaIcEED1Ev(ptr noundef nonnull align 8 dereferenceable(32) %8) #3
  br label %52

37:                                               ; preds = %30
  %38 = load ptr, ptr %6, align 8
  call void @_ZNK4Json5Value8asStringB5cxx11Ev(ptr dead_on_unwind writable sret(%"class.std::__cxx11::basic_string") align 8 %13, ptr noundef nonnull align 8 dereferenceable(40) %38)
  %39 = invoke noundef zeroext i1 @_ZSteqIcSt11char_traitsIcESaIcEEbRKNSt7__cxx1112basic_stringIT_T0_T1_EEPKS5_(ptr noundef nonnull align 8 dereferenceable(32) %13, ptr noundef @.str.49)
          to label %40 unwind label %43

40:                                               ; preds = %37
  call void @_ZNSt7__cxx1112basic_stringIcSt11char_traitsIcESaIcEED1Ev(ptr noundef nonnull align 8 dereferenceable(32) %13) #3
  br i1 %39, label %41, label %47

41:                                               ; preds = %40
  store i32 1, ptr %15, align 4
  call void @_ZNSt8optionalIN19cmCMakePresetsGraph19ArchToolsetStrategyEEC2IS1_TnNSt9enable_ifIX7__and_vISt6__not_ISt7is_sameIS2_NSt9remove_cvINSt16remove_referenceIT_E4typeEE4typeEEES5_IS6_ISt10in_place_tSD_EESt16is_constructibleIS1_JS9_EESt14is_convertibleIS9_S1_EEEbE4typeELb1EEEOS9_(ptr noundef nonnull align 4 dereferenceable(8) %14, ptr noundef nonnull align 4 dereferenceable(4) %15) #3
  %42 = load ptr, ptr %5, align 8
  call void @llvm.memcpy.p0.p0.i64(ptr align 4 %42, ptr align 4 %14, i64 8, i1 false)
  store i1 true, ptr %4, align 1
  br label %50

43:                                               ; preds = %37
  %44 = landingpad { ptr, i32 }
          cleanup
  %45 = extractvalue { ptr, i32 } %44, 0
  store ptr %45, ptr %9, align 8
  %46 = extractvalue { ptr, i32 } %44, 1
  store i32 %46, ptr %10, align 4
  call void @_ZNSt7__cxx1112basic_stringIcSt11char_traitsIcESaIcEED1Ev(ptr noundef nonnull align 8 dereferenceable(32) %13) #3
  br label %52

47:                                               ; preds = %40
  %48 = load ptr, ptr %6, align 8
  %49 = load ptr, ptr %7, align 8
  call void @_ZN20cmCMakePresetsErrors14INVALID_PRESETEPKN4Json5ValueEP11cmJSONState(ptr noundef %48, ptr noundef %49)
  store i1 false, ptr %4, align 1
  br label %50

50:                                               ; preds = %47, %41, %31, %24, %18
  %51 = load i1, ptr %4, align 1
  ret i1 %51

52:                                               ; preds = %43, %33
  %53 = load ptr, ptr %9, align 8
  %54 = load i32, ptr %10, align 4
  %55 = insertvalue { ptr, i32 } poison, ptr %53, 0
  %56 = insertvalue { ptr, i32 } %55, i32 %54, 1
  resume { ptr, i32 } %56
}