; Function Attrs: mustprogress uwtable
define internal noundef zeroext i1 @_ZN12_GLOBAL__N_125ArchToolsetStrategyHelperERSt8optionalIN19cmCMakePresetsGraph19ArchToolsetStrategyEEPKN4Json5ValueEP11cmJSONState(ptr nocapture noundef nonnull align 4 dereferenceable(8) %0, ptr noundef %1, ptr noundef %2) #3 personality ptr @__gxx_personality_v0 {
  %4 = alloca %"class.std::__cxx11::basic_string", align 8
  %5 = alloca %"class.std::__cxx11::basic_string", align 8
  %.not = icmp eq ptr %1, null
  br i1 %.not, label %6, label %11

6:                                                ; preds = %3
  %7 = getelementptr inbounds i8, ptr %0, i64 4
  %8 = load i8, ptr %7, align 4
  %9 = and i8 %8, 1
  %.not.i.i.i = icmp eq i8 %9, 0
  br i1 %.not.i.i.i, label %_ZNSt8optionalIN19cmCMakePresetsGraph19ArchToolsetStrategyEEaSESt9nullopt_t.exit, label %10

10:                                               ; preds = %6
  store i8 0, ptr %7, align 4
  br label %_ZNSt8optionalIN19cmCMakePresetsGraph19ArchToolsetStrategyEEaSESt9nullopt_t.exit

11:                                               ; preds = %3
  %12 = tail call noundef zeroext i1 @_ZNK4Json5Value8isStringEv(ptr noundef nonnull align 8 dereferenceable(40) %1)
  br i1 %12, label %14, label %13

13:                                               ; preds = %11
  tail call void @_ZN20cmCMakePresetsErrors14INVALID_PRESETEPKN4Json5ValueEP11cmJSONState(ptr noundef nonnull %1, ptr noundef %2)
  br label %_ZNSt8optionalIN19cmCMakePresetsGraph19ArchToolsetStrategyEEaSESt9nullopt_t.exit

14:                                               ; preds = %11
  call void @_ZNK4Json5Value8asStringB5cxx11Ev(ptr dead_on_unwind nonnull writable sret(%"class.std::__cxx11::basic_string") align 8 %4, ptr noundef nonnull align 8 dereferenceable(40) %1)
  %15 = call noundef i32 @_ZNKSt7__cxx1112basic_stringIcSt11char_traitsIcESaIcEE7compareEPKc(ptr noundef nonnull align 8 dereferenceable(32) %4, ptr noundef nonnull @.str.48) #21
  %16 = icmp eq i32 %15, 0
  call void @_ZNSt7__cxx1112basic_stringIcSt11char_traitsIcESaIcEED1Ev(ptr noundef nonnull align 8 dereferenceable(32) %4) #21
  br i1 %16, label %17, label %18

17:                                               ; preds = %14
  store i64 4294967296, ptr %0, align 4
  br label %_ZNSt8optionalIN19cmCMakePresetsGraph19ArchToolsetStrategyEEaSESt9nullopt_t.exit

18:                                               ; preds = %14
  call void @_ZNK4Json5Value8asStringB5cxx11Ev(ptr dead_on_unwind nonnull writable sret(%"class.std::__cxx11::basic_string") align 8 %5, ptr noundef nonnull align 8 dereferenceable(40) %1)
  %19 = call noundef i32 @_ZNKSt7__cxx1112basic_stringIcSt11char_traitsIcESaIcEE7compareEPKc(ptr noundef nonnull align 8 dereferenceable(32) %5, ptr noundef nonnull @.str.49) #21
  %20 = icmp eq i32 %19, 0
  call void @_ZNSt7__cxx1112basic_stringIcSt11char_traitsIcESaIcEED1Ev(ptr noundef nonnull align 8 dereferenceable(32) %5) #21
  br i1 %20, label %21, label %22

21:                                               ; preds = %18
  store i64 4294967297, ptr %0, align 4
  br label %_ZNSt8optionalIN19cmCMakePresetsGraph19ArchToolsetStrategyEEaSESt9nullopt_t.exit

22:                                               ; preds = %18
  call void @_ZN20cmCMakePresetsErrors14INVALID_PRESETEPKN4Json5ValueEP11cmJSONState(ptr noundef nonnull %1, ptr noundef %2)
  br label %_ZNSt8optionalIN19cmCMakePresetsGraph19ArchToolsetStrategyEEaSESt9nullopt_t.exit

_ZNSt8optionalIN19cmCMakePresetsGraph19ArchToolsetStrategyEEaSESt9nullopt_t.exit: ; preds = %10, %6, %22, %21, %17, %13
  %.0 = phi i1 [ true, %17 ], [ true, %21 ], [ false, %22 ], [ false, %13 ], [ true, %6 ], [ true, %10 ]
  ret i1 %.0
}